	.file	"args.c"
	.text
	.section	.rodata
.LC0:
	.string	"-v"
.LC1:
	.string	"-o"
	.text
	.globl	parse_args
	.type	parse_args, @function
parse_args:
.LFB0:
	.cfi_startproc
	pushq	%rbp
	.cfi_def_cfa_offset 16
	.cfi_offset 6, -16
	movq	%rsp, %rbp
	.cfi_def_cfa_register 6
	subq	$48, %rsp
	movl	%edi, -20(%rbp)
	movq	%rsi, -32(%rbp)
	movq	%rdx, -40(%rbp)
	cmpl	$1, -20(%rbp)
	jg	.L2
	movl	$0, %eax
	jmp	.L3
.L2:
	movl	$1, -4(%rbp)
	jmp	.L4
.L8:
	movl	-4(%rbp), %eax
	cltq
	leaq	0(,%rax,8), %rdx
	movq	-32(%rbp), %rax
	addq	%rdx, %rax
	movq	(%rax), %rax
	leaq	.LC0(%rip), %rdx
	movq	%rdx, %rsi
	movq	%rax, %rdi
	call	strcmp@PLT
	testl	%eax, %eax
	jne	.L5
	movq	-40(%rbp), %rax
	movl	$3, 16(%rax)
	jmp	.L6
.L5:
	movl	-4(%rbp), %eax
	cltq
	leaq	0(,%rax,8), %rdx
	movq	-32(%rbp), %rax
	addq	%rdx, %rax
	movq	(%rax), %rax
	leaq	.LC1(%rip), %rdx
	movq	%rdx, %rsi
	movq	%rax, %rdi
	call	strcmp@PLT
	testl	%eax, %eax
	jne	.L7
	addl	$1, -4(%rbp)
	movl	-4(%rbp), %eax
	cltq
	leaq	0(,%rax,8), %rdx
	movq	-32(%rbp), %rax
	addq	%rdx, %rax
	movq	(%rax), %rdx
	movq	-40(%rbp), %rax
	movq	%rdx, 8(%rax)
	jmp	.L6
.L7:
	movl	-4(%rbp), %eax
	cltq
	leaq	0(,%rax,8), %rdx
	movq	-32(%rbp), %rax
	addq	%rdx, %rax
	movq	(%rax), %rdx
	movq	-40(%rbp), %rax
	movq	%rdx, (%rax)
.L6:
	addl	$1, -4(%rbp)
.L4:
	movl	-4(%rbp), %eax
	cmpl	-20(%rbp), %eax
	jl	.L8
	movl	$1, %eax
.L3:
	leave
	.cfi_def_cfa 7, 8
	ret
	.cfi_endproc
.LFE0:
	.size	parse_args, .-parse_args
	.section	.rodata
	.align 8
.LC2:
	.string	"[ERROR] Usage: %s <assembly> [assembly] <object>\n"
	.text
	.globl	usage
	.type	usage, @function
usage:
.LFB1:
	.cfi_startproc
	pushq	%rbp
	.cfi_def_cfa_offset 16
	.cfi_offset 6, -16
	movq	%rsp, %rbp
	.cfi_def_cfa_register 6
	subq	$16, %rsp
	movq	%rdi, -8(%rbp)
	movq	-8(%rbp), %rax
	movq	(%rax), %rdx
	movq	stderr(%rip), %rax
	leaq	.LC2(%rip), %rcx
	movq	%rcx, %rsi
	movq	%rax, %rdi
	movl	$0, %eax
	call	fprintf@PLT
	nop
	leave
	.cfi_def_cfa 7, 8
	ret
	.cfi_endproc
.LFE1:
	.size	usage, .-usage
	.ident	"GCC: (GNU) 14.2.1 20250207"
	.section	.note.GNU-stack,"",@progbits
